target datalayout = "e-m:e-p270:32:32-p271:32:32-p272:64:64-i64:64-i128:128-f80:128-n8:16:32:64-S128"
target triple = "x86_64-pc-linux-gnu"

; Function Attrs: nounwind uwtable
define i32 @BIO_sock_non_fatal_error(i32 noundef %0) #0 {
  %2 = alloca i32, align 4
  %3 = alloca i32, align 4
  store i32 %0, ptr %3, align 4, !tbaa !3
  %4 = load i32, ptr %3, align 4, !tbaa !3
  switch i32 %4, label %6 [
    i32 11, label %5
    i32 107, label %5
    i32 4, label %5
    i32 71, label %5
    i32 115, label %5
    i32 114, label %5
  ]

5:                                                ; preds = %1, %1, %1, %1, %1, %1
  store i32 1, ptr %2, align 4
  br label %8

6:                                                ; preds = %1
  br label %7

7:                                                ; preds = %6
  store i32 0, ptr %2, align 4
  br label %8

8:                                                ; preds = %7, %5
  %9 = load i32, ptr %2, align 4
  ret i32 %9
}